; Function Attrs: mustprogress nounwind uwtable
define dso_local void @_ZN4llvm14MCWasmStreamer18emitInstToFragmentERKNS_6MCInstERKNS_15MCSubtargetInfoE(ptr noundef nonnull align 8 dereferenceable(425) %0, ptr noundef nonnull align 8 dereferenceable(128) %1, ptr noundef nonnull align 1 %2) unnamed_addr #0 align 2 {
  tail call void @_ZN4llvm16MCObjectStreamer18emitInstToFragmentERKNS_6MCInstERKNS_15MCSubtargetInfoE(ptr noundef nonnull align 8 dereferenceable(424) %0, ptr noundef nonnull align 8 dereferenceable(128) %1, ptr noundef nonnull align 1 %2) #12
  %4 = getelementptr inbounds nuw i8, ptr %0, i64 280
  %5 = load ptr, ptr %4, align 8
  %6 = getelementptr inbounds nuw i8, ptr %5, i64 72
  %7 = load ptr, ptr %6, align 8
  %8 = tail call noundef i64 @_ZNK4llvm15SmallVectorBaseIjE4sizeEv(ptr noundef nonnull align 8 dereferenceable(16) %6) #12
  %9 = getelementptr inbounds %"class.llvm::MCFixup", ptr %7, i64 %8
  %.not11 = icmp eq i64 %8, 0
  br i1 %.not11, label %._crit_edge, label %.lr.ph

.lr.ph:                                           ; preds = %3, %.lr.ph
  %.012 = phi ptr [ %11, %.lr.ph ], [ %7, %3 ]
  %10 = load ptr, ptr %.012, align 8
  tail call void @_ZN4llvm14MCWasmStreamer21fixSymbolsInTLSFixupsEPKNS_6MCExprE(ptr noundef nonnull align 8 dereferenceable(425) %0, ptr noundef %10)
  %11 = getelementptr inbounds i8, ptr %.012, i64 24
  %.not = icmp eq ptr %11, %9
  br i1 %.not, label %._crit_edge, label %.lr.ph

._crit_edge:                                      ; preds = %.lr.ph, %3
  ret void
}